; ModuleID = '7/222.c'
source_filename = "7/222.c"
target datalayout = "e-m:e-p270:32:32-p271:32:32-p272:64:64-i64:64-f80:128-n8:16:32:64-S128"
target triple = "x86_64-pc-linux-gnu"

@.str = private unnamed_addr constant [3 x i8] c"%s\00", align 1

; Function Attrs: noinline nounwind uwtable
define dso_local i32 @main() #0 {
  %1 = alloca i32, align 4
  %2 = alloca [256 x i8], align 16
  %3 = alloca [256 x i8], align 16
  %4 = alloca [256 x i8], align 16
  %5 = alloca i32, align 4
  %6 = alloca i32, align 4
  %7 = alloca i32, align 4
  store i32 0, i32* %1, align 4
  %8 = getelementptr inbounds [256 x i8], [256 x i8]* %2, i64 0, i64 0
  %9 = call i32 (i8*, ...) bitcast (i32 (...)* @gets to i32 (i8*, ...)*)(i8* %8)
  %10 = getelementptr inbounds [256 x i8], [256 x i8]* %3, i64 0, i64 0
  %11 = call i32 (i8*, ...) bitcast (i32 (...)* @gets to i32 (i8*, ...)*)(i8* %10)
  %12 = getelementptr inbounds [256 x i8], [256 x i8]* %4, i64 0, i64 0
  %13 = call i32 (i8*, ...) bitcast (i32 (...)* @gets to i32 (i8*, ...)*)(i8* %12)
  store i32 0, i32* %5, align 4
  br label %14

14:                                               ; preds = %91, %0
  %15 = load i32, i32* %5, align 4
  %16 = sext i32 %15 to i64
  %17 = getelementptr inbounds [256 x i8], [256 x i8]* %2, i64 0, i64 0
  %18 = call i64 @strlen(i8* %17) #3
  %19 = icmp ult i64 %16, %18
  br i1 %19, label %20, label %94

20:                                               ; preds = %14
  %21 = load i32, i32* %5, align 4
  store i32 %21, i32* %6, align 4
  br label %22

22:                                               ; preds = %77, %20
  %23 = load i32, i32* %6, align 4
  %24 = sext i32 %23 to i64
  %25 = getelementptr inbounds [256 x i8], [256 x i8]* %3, i64 0, i64 0
  %26 = call i64 @strlen(i8* %25) #3
  %27 = load i32, i32* %5, align 4
  %28 = sext i32 %27 to i64
  %29 = add i64 %26, %28
  %30 = icmp ult i64 %24, %29
  br i1 %30, label %31, label %80

31:                                               ; preds = %22
  %32 = load i32, i32* %6, align 4
  %33 = sext i32 %32 to i64
  %34 = getelementptr inbounds [256 x i8], [256 x i8]* %2, i64 0, i64 %33
  %35 = load i8, i8* %34, align 1
  %36 = sext i8 %35 to i32
  %37 = load i32, i32* %6, align 4
  %38 = load i32, i32* %5, align 4
  %39 = sub nsw i32 %37, %38
  %40 = sext i32 %39 to i64
  %41 = getelementptr inbounds [256 x i8], [256 x i8]* %3, i64 0, i64 %40
  %42 = load i8, i8* %41, align 1
  %43 = sext i8 %42 to i32
  %44 = icmp ne i32 %36, %43
  br i1 %44, label %45, label %46

45:                                               ; preds = %31
  br label %80

46:                                               ; preds = %31
  %47 = load i32, i32* %6, align 4
  %48 = sext i32 %47 to i64
  %49 = getelementptr inbounds [256 x i8], [256 x i8]* %3, i64 0, i64 0
  %50 = call i64 @strlen(i8* %49) #3
  %51 = load i32, i32* %5, align 4
  %52 = sext i32 %51 to i64
  %53 = add i64 %50, %52
  %54 = sub i64 %53, 1
  %55 = icmp eq i64 %48, %54
  br i1 %55, label %56, label %76

56:                                               ; preds = %46
  %57 = load i32, i32* %6, align 4
  store i32 %57, i32* %7, align 4
  br label %58

58:                                               ; preds = %72, %56
  %59 = load i32, i32* %7, align 4
  %60 = load i32, i32* %5, align 4
  %61 = icmp sge i32 %59, %60
  br i1 %61, label %62, label %75

62:                                               ; preds = %58
  %63 = load i32, i32* %7, align 4
  %64 = load i32, i32* %5, align 4
  %65 = sub nsw i32 %63, %64
  %66 = sext i32 %65 to i64
  %67 = getelementptr inbounds [256 x i8], [256 x i8]* %4, i64 0, i64 %66
  %68 = load i8, i8* %67, align 1
  %69 = load i32, i32* %7, align 4
  %70 = sext i32 %69 to i64
  %71 = getelementptr inbounds [256 x i8], [256 x i8]* %2, i64 0, i64 %70
  store i8 %68, i8* %71, align 1
  br label %72

72:                                               ; preds = %62
  %73 = load i32, i32* %7, align 4
  %74 = add nsw i32 %73, -1
  store i32 %74, i32* %7, align 4
  br label %58

75:                                               ; preds = %58
  br label %76

76:                                               ; preds = %75, %46
  br label %77

77:                                               ; preds = %76
  %78 = load i32, i32* %6, align 4
  %79 = add nsw i32 %78, 1
  store i32 %79, i32* %6, align 4
  br label %22

80:                                               ; preds = %45, %22
  %81 = load i32, i32* %6, align 4
  %82 = sext i32 %81 to i64
  %83 = getelementptr inbounds [256 x i8], [256 x i8]* %3, i64 0, i64 0
  %84 = call i64 @strlen(i8* %83) #3
  %85 = load i32, i32* %5, align 4
  %86 = sext i32 %85 to i64
  %87 = add i64 %84, %86
  %88 = icmp eq i64 %82, %87
  br i1 %88, label %89, label %90

89:                                               ; preds = %80
  br label %94

90:                                               ; preds = %80
  br label %91

91:                                               ; preds = %90
  %92 = load i32, i32* %5, align 4
  %93 = add nsw i32 %92, 1
  store i32 %93, i32* %5, align 4
  br label %14

94:                                               ; preds = %89, %14
  %95 = getelementptr inbounds [256 x i8], [256 x i8]* %2, i64 0, i64 0
  %96 = call i32 (i8*, ...) @printf(i8* getelementptr inbounds ([3 x i8], [3 x i8]* @.str, i64 0, i64 0), i8* %95)
  ret i32 0
}

declare dso_local i32 @gets(...) #1

; Function Attrs: nounwind readonly
declare dso_local i64 @strlen(i8*) #2

declare dso_local i32 @printf(i8*, ...) #1


!llvm.module.flags = !{!0}
!llvm.ident = !{!1}

!0 = !{i32 1, !"wchar_size", i32 4}
!1 = !{!"clang version 10.0.0-4ubuntu1 "}
